target datalayout = "e-m:e-p270:32:32-p271:32:32-p272:64:64-i64:64-i128:128-f80:128-n8:16:32:64-S128"
target triple = "x86_64-pc-linux-gnu"

%"class.StringDedup::Table::Bucket" = type { %class.GrowableArrayCHeap, %class.GrowableArrayCHeap.0 }
%class.GrowableArrayCHeap = type { %class.GrowableArrayWithAllocator }
%class.GrowableArrayWithAllocator = type { %class.GrowableArrayView }
%class.GrowableArrayView = type { %class.GrowableArrayBase, ptr }
%class.GrowableArrayBase = type { i32, i32 }
%class.GrowableArrayCHeap.0 = type { %class.GrowableArrayWithAllocator.1 }
%class.GrowableArrayWithAllocator.1 = type { %class.GrowableArrayView.2 }
%class.GrowableArrayView.2 = type { %class.GrowableArrayBase, ptr }
%class.WeakHandle = type { ptr }

@_ZN11StringDedup5Table18_number_of_bucketsE = hidden global i64 0, align 8
@_ZN11StringDedup5Table8_bucketsE = hidden global ptr null, align 8
@_ZN11StringDedup5Table18_number_of_entriesE = hidden global i64 0, align 8

; Function Attrs: mustprogress nounwind uwtable
define linkonce_odr hidden void @_ZN26GrowableArrayWithAllocatorI10WeakHandle18GrowableArrayCHeapIS0_L8MEMFLAGS25EEE4pushERKS0_(ptr noundef nonnull align 8 dereferenceable(16) %0, ptr noundef nonnull align 8 dereferenceable(8) %1) #1 comdat align 2 {
  %3 = alloca ptr, align 8
  %4 = alloca ptr, align 8
  store ptr %0, ptr %3, align 8
  store ptr %1, ptr %4, align 8
  %5 = load ptr, ptr %3, align 8
  %6 = load ptr, ptr %4, align 8
  %7 = call noundef i32 @_ZN26GrowableArrayWithAllocatorI10WeakHandle18GrowableArrayCHeapIS0_L8MEMFLAGS25EEE6appendERKS0_(ptr noundef nonnull align 8 dereferenceable(16) %5, ptr noundef nonnull align 8 dereferenceable(8) %6)
  ret void
}

; Function Attrs: mustprogress nounwind uwtable
define linkonce_odr hidden void @_ZN26GrowableArrayWithAllocatorIj18GrowableArrayCHeapIjL8MEMFLAGS25EEE4pushERKj(ptr noundef nonnull align 8 dereferenceable(16) %0, ptr noundef nonnull align 4 dereferenceable(4) %1) #1 comdat align 2 {
  %3 = alloca ptr, align 8
  %4 = alloca ptr, align 8
  store ptr %0, ptr %3, align 8
  store ptr %1, ptr %4, align 8
  %5 = load ptr, ptr %3, align 8
  %6 = load ptr, ptr %4, align 8
  %7 = call noundef i32 @_ZN26GrowableArrayWithAllocatorIj18GrowableArrayCHeapIjL8MEMFLAGS25EEE6appendERKj(ptr noundef nonnull align 8 dereferenceable(16) %5, ptr noundef nonnull align 4 dereferenceable(4) %6)
  ret void
}

; Function Attrs: mustprogress nounwind uwtable
define linkonce_odr hidden void @_ZN11StringDedup5Table6Bucket3addEj10WeakHandle(ptr noundef nonnull align 8 dereferenceable(32) %0, i32 noundef %1, ptr %2) #1 comdat align 2 {
  %4 = alloca %class.WeakHandle, align 8
  %5 = alloca ptr, align 8
  %6 = alloca i32, align 4
  %7 = getelementptr inbounds %class.WeakHandle, ptr %4, i32 0, i32 0
  store ptr %2, ptr %7, align 8
  store ptr %0, ptr %5, align 8
  store i32 %1, ptr %6, align 4
  %8 = load ptr, ptr %5, align 8
  call void @_ZN11StringDedup5Table6Bucket14expand_if_fullEv(ptr noundef nonnull align 8 dereferenceable(32) %8)
  %9 = getelementptr inbounds %"class.StringDedup::Table::Bucket", ptr %8, i32 0, i32 0
  call void @_ZN26GrowableArrayWithAllocatorIj18GrowableArrayCHeapIjL8MEMFLAGS25EEE4pushERKj(ptr noundef nonnull align 8 dereferenceable(16) %9, ptr noundef nonnull align 4 dereferenceable(4) %6)
  %10 = getelementptr inbounds %"class.StringDedup::Table::Bucket", ptr %8, i32 0, i32 1
  call void @_ZN26GrowableArrayWithAllocatorI10WeakHandle18GrowableArrayCHeapIS0_L8MEMFLAGS25EEE4pushERKS0_(ptr noundef nonnull align 8 dereferenceable(16) %10, ptr noundef nonnull align 8 dereferenceable(8) %4)
  ret void
}

; Function Attrs: mustprogress nounwind uwtable
define hidden noundef i64 @_ZN11StringDedup5Table13hash_to_indexEj(i32 noundef %0) #1 align 2 {
  %2 = alloca i32, align 4
  store i32 %0, ptr %2, align 4
  %3 = load i32, ptr %2, align 4
  %4 = zext i32 %3 to i64
  %5 = load i64, ptr @_ZN11StringDedup5Table18_number_of_bucketsE, align 8
  %6 = urem i64 %4, %5
  ret i64 %6
}

; Function Attrs: mustprogress nounwind uwtable
define hidden void @_ZN11StringDedup5Table3addE10WeakHandlej(ptr %0, i32 noundef %1) #1 align 2 {
  %3 = alloca %class.WeakHandle, align 8
  %4 = alloca i32, align 4
  %5 = alloca %class.WeakHandle, align 8
  %6 = getelementptr inbounds %class.WeakHandle, ptr %3, i32 0, i32 0
  store ptr %0, ptr %6, align 8
  store i32 %1, ptr %4, align 4
  %7 = load ptr, ptr @_ZN11StringDedup5Table8_bucketsE, align 8
  %8 = load i32, ptr %4, align 4
  %9 = call noundef i64 @_ZN11StringDedup5Table13hash_to_indexEj(i32 noundef %8)
  %10 = getelementptr inbounds %"class.StringDedup::Table::Bucket", ptr %7, i64 %9
  %11 = load i32, ptr %4, align 4
  call void @llvm.memcpy.p0.p0.i64(ptr align 8 %5, ptr align 8 %3, i64 8, i1 false)
  %12 = getelementptr inbounds %class.WeakHandle, ptr %5, i32 0, i32 0
  %13 = load ptr, ptr %12, align 8
  call void @_ZN11StringDedup5Table6Bucket3addEj10WeakHandle(ptr noundef nonnull align 8 dereferenceable(32) %10, i32 noundef %11, ptr %13)
  %14 = load i64, ptr @_ZN11StringDedup5Table18_number_of_entriesE, align 8
  %15 = add i64 %14, 1
  store i64 %15, ptr @_ZN11StringDedup5Table18_number_of_entriesE, align 8
  ret void
}