; Function Attrs: mustprogress nounwind uwtable
define hidden void @_ZN11StringDedup5Table3addE10WeakHandlej(ptr %0, i32 noundef %1) local_unnamed_addr #0 align 2 {
  %3 = alloca %class.WeakHandle, align 8
  %4 = alloca i32, align 4
  %5 = load ptr, ptr @_ZN11StringDedup5Table8_bucketsE, align 8
  %6 = zext i32 %1 to i64
  %7 = load i64, ptr @_ZN11StringDedup5Table18_number_of_bucketsE, align 8
  %8 = urem i64 %6, %7
  %9 = getelementptr inbounds %"class.StringDedup::Table::Bucket", ptr %5, i64 %8
  call void @llvm.lifetime.start.p0(i64 8, ptr nonnull %3)
  call void @llvm.lifetime.start.p0(i64 4, ptr nonnull %4)
  store ptr %0, ptr %3, align 8
  store i32 %1, ptr %4, align 4
  tail call void @_ZN11StringDedup5Table6Bucket14expand_if_fullEv(ptr noundef nonnull align 8 dereferenceable(32) %9)
  %10 = call noundef i32 @_ZN26GrowableArrayWithAllocatorIj18GrowableArrayCHeapIjL8MEMFLAGS25EEE6appendERKj(ptr noundef nonnull align 8 dereferenceable(16) %9, ptr noundef nonnull align 4 dereferenceable(4) %4)
  %11 = getelementptr inbounds i8, ptr %9, i64 16
  %12 = call noundef i32 @_ZN26GrowableArrayWithAllocatorI10WeakHandle18GrowableArrayCHeapIS0_L8MEMFLAGS25EEE6appendERKS0_(ptr noundef nonnull align 8 dereferenceable(16) %11, ptr noundef nonnull align 8 dereferenceable(8) %3)
  call void @llvm.lifetime.end.p0(i64 8, ptr nonnull %3)
  call void @llvm.lifetime.end.p0(i64 4, ptr nonnull %4)
  %13 = load i64, ptr @_ZN11StringDedup5Table18_number_of_entriesE, align 8
  %14 = add i64 %13, 1
  store i64 %14, ptr @_ZN11StringDedup5Table18_number_of_entriesE, align 8
  ret void
}